target datalayout = "e-m:e-p270:32:32-p271:32:32-p272:64:64-i64:64-i128:128-f80:128-n8:16:32:64-S128"
target triple = "x86_64-pc-linux-gnu"

; Function Attrs: nounwind uwtable
define internal void @put_no_rnd_vc1_chroma_mc8_c(ptr noundef %0, ptr noundef %1, i64 noundef %2, i32 noundef %3, i32 noundef %4, i32 noundef %5) #1 {
  %7 = alloca ptr, align 8
  %8 = alloca ptr, align 8
  %9 = alloca i64, align 8
  %10 = alloca i32, align 4
  %11 = alloca i32, align 4
  %12 = alloca i32, align 4
  %13 = alloca i32, align 4
  %14 = alloca i32, align 4
  %15 = alloca i32, align 4
  %16 = alloca i32, align 4
  %17 = alloca i32, align 4
  store ptr %0, ptr %7, align 8, !tbaa !45
  store ptr %1, ptr %8, align 8, !tbaa !45
  store i64 %2, ptr %9, align 8, !tbaa !47
  store i32 %3, ptr %10, align 4, !tbaa !38
  store i32 %4, ptr %11, align 4, !tbaa !38
  store i32 %5, ptr %12, align 4, !tbaa !38
  call void @llvm.lifetime.start.p0(i64 4, ptr %13) #7
  %18 = load i32, ptr %11, align 4, !tbaa !38
  %19 = sub nsw i32 8, %18
  %20 = load i32, ptr %12, align 4, !tbaa !38
  %21 = sub nsw i32 8, %20
  %22 = mul nsw i32 %19, %21
  store i32 %22, ptr %13, align 4, !tbaa !38
  call void @llvm.lifetime.start.p0(i64 4, ptr %14) #7
  %23 = load i32, ptr %11, align 4, !tbaa !38
  %24 = load i32, ptr %12, align 4, !tbaa !38
  %25 = sub nsw i32 8, %24
  %26 = mul nsw i32 %23, %25
  store i32 %26, ptr %14, align 4, !tbaa !38
  call void @llvm.lifetime.start.p0(i64 4, ptr %15) #7
  %27 = load i32, ptr %11, align 4, !tbaa !38
  %28 = sub nsw i32 8, %27
  %29 = load i32, ptr %12, align 4, !tbaa !38
  %30 = mul nsw i32 %28, %29
  store i32 %30, ptr %15, align 4, !tbaa !38
  call void @llvm.lifetime.start.p0(i64 4, ptr %16) #7
  %31 = load i32, ptr %11, align 4, !tbaa !38
  %32 = load i32, ptr %12, align 4, !tbaa !38
  %33 = mul nsw i32 %31, %32
  store i32 %33, ptr %16, align 4, !tbaa !38
  call void @llvm.lifetime.start.p0(i64 4, ptr %17) #7
  store i32 0, ptr %17, align 4, !tbaa !38
  br label %34

34:                                               ; preds = %349, %6
  %35 = load i32, ptr %17, align 4, !tbaa !38
  %36 = load i32, ptr %10, align 4, !tbaa !38
  %37 = icmp slt i32 %35, %36
  br i1 %37, label %38, label %352

38:                                               ; preds = %34
  %39 = load i32, ptr %13, align 4, !tbaa !38
  %40 = load ptr, ptr %8, align 8, !tbaa !45
  %41 = getelementptr inbounds i8, ptr %40, i64 0
  %42 = load i8, ptr %41, align 1, !tbaa !50
  %43 = zext i8 %42 to i32
  %44 = mul nsw i32 %39, %43
  %45 = load i32, ptr %14, align 4, !tbaa !38
  %46 = load ptr, ptr %8, align 8, !tbaa !45
  %47 = getelementptr inbounds i8, ptr %46, i64 1
  %48 = load i8, ptr %47, align 1, !tbaa !50
  %49 = zext i8 %48 to i32
  %50 = mul nsw i32 %45, %49
  %51 = add nsw i32 %44, %50
  %52 = load i32, ptr %15, align 4, !tbaa !38
  %53 = load ptr, ptr %8, align 8, !tbaa !45
  %54 = load i64, ptr %9, align 8, !tbaa !47
  %55 = add nsw i64 %54, 0
  %56 = getelementptr inbounds i8, ptr %53, i64 %55
  %57 = load i8, ptr %56, align 1, !tbaa !50
  %58 = zext i8 %57 to i32
  %59 = mul nsw i32 %52, %58
  %60 = add nsw i32 %51, %59
  %61 = load i32, ptr %16, align 4, !tbaa !38
  %62 = load ptr, ptr %8, align 8, !tbaa !45
  %63 = load i64, ptr %9, align 8, !tbaa !47
  %64 = add nsw i64 %63, 0
  %65 = add nsw i64 %64, 1
  %66 = getelementptr inbounds i8, ptr %62, i64 %65
  %67 = load i8, ptr %66, align 1, !tbaa !50
  %68 = zext i8 %67 to i32
  %69 = mul nsw i32 %61, %68
  %70 = add nsw i32 %60, %69
  %71 = add nsw i32 %70, 32
  %72 = sub nsw i32 %71, 4
  %73 = ashr i32 %72, 6
  %74 = trunc i32 %73 to i8
  %75 = load ptr, ptr %7, align 8, !tbaa !45
  %76 = getelementptr inbounds i8, ptr %75, i64 0
  store i8 %74, ptr %76, align 1, !tbaa !50
  %77 = load i32, ptr %13, align 4, !tbaa !38
  %78 = load ptr, ptr %8, align 8, !tbaa !45
  %79 = getelementptr inbounds i8, ptr %78, i64 1
  %80 = load i8, ptr %79, align 1, !tbaa !50
  %81 = zext i8 %80 to i32
  %82 = mul nsw i32 %77, %81
  %83 = load i32, ptr %14, align 4, !tbaa !38
  %84 = load ptr, ptr %8, align 8, !tbaa !45
  %85 = getelementptr inbounds i8, ptr %84, i64 2
  %86 = load i8, ptr %85, align 1, !tbaa !50
  %87 = zext i8 %86 to i32
  %88 = mul nsw i32 %83, %87
  %89 = add nsw i32 %82, %88
  %90 = load i32, ptr %15, align 4, !tbaa !38
  %91 = load ptr, ptr %8, align 8, !tbaa !45
  %92 = load i64, ptr %9, align 8, !tbaa !47
  %93 = add nsw i64 %92, 1
  %94 = getelementptr inbounds i8, ptr %91, i64 %93
  %95 = load i8, ptr %94, align 1, !tbaa !50
  %96 = zext i8 %95 to i32
  %97 = mul nsw i32 %90, %96
  %98 = add nsw i32 %89, %97
  %99 = load i32, ptr %16, align 4, !tbaa !38
  %100 = load ptr, ptr %8, align 8, !tbaa !45
  %101 = load i64, ptr %9, align 8, !tbaa !47
  %102 = add nsw i64 %101, 1
  %103 = add nsw i64 %102, 1
  %104 = getelementptr inbounds i8, ptr %100, i64 %103
  %105 = load i8, ptr %104, align 1, !tbaa !50
  %106 = zext i8 %105 to i32
  %107 = mul nsw i32 %99, %106
  %108 = add nsw i32 %98, %107
  %109 = add nsw i32 %108, 32
  %110 = sub nsw i32 %109, 4
  %111 = ashr i32 %110, 6
  %112 = trunc i32 %111 to i8
  %113 = load ptr, ptr %7, align 8, !tbaa !45
  %114 = getelementptr inbounds i8, ptr %113, i64 1
  store i8 %112, ptr %114, align 1, !tbaa !50
  %115 = load i32, ptr %13, align 4, !tbaa !38
  %116 = load ptr, ptr %8, align 8, !tbaa !45
  %117 = getelementptr inbounds i8, ptr %116, i64 2
  %118 = load i8, ptr %117, align 1, !tbaa !50
  %119 = zext i8 %118 to i32
  %120 = mul nsw i32 %115, %119
  %121 = load i32, ptr %14, align 4, !tbaa !38
  %122 = load ptr, ptr %8, align 8, !tbaa !45
  %123 = getelementptr inbounds i8, ptr %122, i64 3
  %124 = load i8, ptr %123, align 1, !tbaa !50
  %125 = zext i8 %124 to i32
  %126 = mul nsw i32 %121, %125
  %127 = add nsw i32 %120, %126
  %128 = load i32, ptr %15, align 4, !tbaa !38
  %129 = load ptr, ptr %8, align 8, !tbaa !45
  %130 = load i64, ptr %9, align 8, !tbaa !47
  %131 = add nsw i64 %130, 2
  %132 = getelementptr inbounds i8, ptr %129, i64 %131
  %133 = load i8, ptr %132, align 1, !tbaa !50
  %134 = zext i8 %133 to i32
  %135 = mul nsw i32 %128, %134
  %136 = add nsw i32 %127, %135
  %137 = load i32, ptr %16, align 4, !tbaa !38
  %138 = load ptr, ptr %8, align 8, !tbaa !45
  %139 = load i64, ptr %9, align 8, !tbaa !47
  %140 = add nsw i64 %139, 2
  %141 = add nsw i64 %140, 1
  %142 = getelementptr inbounds i8, ptr %138, i64 %141
  %143 = load i8, ptr %142, align 1, !tbaa !50
  %144 = zext i8 %143 to i32
  %145 = mul nsw i32 %137, %144
  %146 = add nsw i32 %136, %145
  %147 = add nsw i32 %146, 32
  %148 = sub nsw i32 %147, 4
  %149 = ashr i32 %148, 6
  %150 = trunc i32 %149 to i8
  %151 = load ptr, ptr %7, align 8, !tbaa !45
  %152 = getelementptr inbounds i8, ptr %151, i64 2
  store i8 %150, ptr %152, align 1, !tbaa !50
  %153 = load i32, ptr %13, align 4, !tbaa !38
  %154 = load ptr, ptr %8, align 8, !tbaa !45
  %155 = getelementptr inbounds i8, ptr %154, i64 3
  %156 = load i8, ptr %155, align 1, !tbaa !50
  %157 = zext i8 %156 to i32
  %158 = mul nsw i32 %153, %157
  %159 = load i32, ptr %14, align 4, !tbaa !38
  %160 = load ptr, ptr %8, align 8, !tbaa !45
  %161 = getelementptr inbounds i8, ptr %160, i64 4
  %162 = load i8, ptr %161, align 1, !tbaa !50
  %163 = zext i8 %162 to i32
  %164 = mul nsw i32 %159, %163
  %165 = add nsw i32 %158, %164
  %166 = load i32, ptr %15, align 4, !tbaa !38
  %167 = load ptr, ptr %8, align 8, !tbaa !45
  %168 = load i64, ptr %9, align 8, !tbaa !47
  %169 = add nsw i64 %168, 3
  %170 = getelementptr inbounds i8, ptr %167, i64 %169
  %171 = load i8, ptr %170, align 1, !tbaa !50
  %172 = zext i8 %171 to i32
  %173 = mul nsw i32 %166, %172
  %174 = add nsw i32 %165, %173
  %175 = load i32, ptr %16, align 4, !tbaa !38
  %176 = load ptr, ptr %8, align 8, !tbaa !45
  %177 = load i64, ptr %9, align 8, !tbaa !47
  %178 = add nsw i64 %177, 3
  %179 = add nsw i64 %178, 1
  %180 = getelementptr inbounds i8, ptr %176, i64 %179
  %181 = load i8, ptr %180, align 1, !tbaa !50
  %182 = zext i8 %181 to i32
  %183 = mul nsw i32 %175, %182
  %184 = add nsw i32 %174, %183
  %185 = add nsw i32 %184, 32
  %186 = sub nsw i32 %185, 4
  %187 = ashr i32 %186, 6
  %188 = trunc i32 %187 to i8
  %189 = load ptr, ptr %7, align 8, !tbaa !45
  %190 = getelementptr inbounds i8, ptr %189, i64 3
  store i8 %188, ptr %190, align 1, !tbaa !50
  %191 = load i32, ptr %13, align 4, !tbaa !38
  %192 = load ptr, ptr %8, align 8, !tbaa !45
  %193 = getelementptr inbounds i8, ptr %192, i64 4
  %194 = load i8, ptr %193, align 1, !tbaa !50
  %195 = zext i8 %194 to i32
  %196 = mul nsw i32 %191, %195
  %197 = load i32, ptr %14, align 4, !tbaa !38
  %198 = load ptr, ptr %8, align 8, !tbaa !45
  %199 = getelementptr inbounds i8, ptr %198, i64 5
  %200 = load i8, ptr %199, align 1, !tbaa !50
  %201 = zext i8 %200 to i32
  %202 = mul nsw i32 %197, %201
  %203 = add nsw i32 %196, %202
  %204 = load i32, ptr %15, align 4, !tbaa !38
  %205 = load ptr, ptr %8, align 8, !tbaa !45
  %206 = load i64, ptr %9, align 8, !tbaa !47
  %207 = add nsw i64 %206, 4
  %208 = getelementptr inbounds i8, ptr %205, i64 %207
  %209 = load i8, ptr %208, align 1, !tbaa !50
  %210 = zext i8 %209 to i32
  %211 = mul nsw i32 %204, %210
  %212 = add nsw i32 %203, %211
  %213 = load i32, ptr %16, align 4, !tbaa !38
  %214 = load ptr, ptr %8, align 8, !tbaa !45
  %215 = load i64, ptr %9, align 8, !tbaa !47
  %216 = add nsw i64 %215, 4
  %217 = add nsw i64 %216, 1
  %218 = getelementptr inbounds i8, ptr %214, i64 %217
  %219 = load i8, ptr %218, align 1, !tbaa !50
  %220 = zext i8 %219 to i32
  %221 = mul nsw i32 %213, %220
  %222 = add nsw i32 %212, %221
  %223 = add nsw i32 %222, 32
  %224 = sub nsw i32 %223, 4
  %225 = ashr i32 %224, 6
  %226 = trunc i32 %225 to i8
  %227 = load ptr, ptr %7, align 8, !tbaa !45
  %228 = getelementptr inbounds i8, ptr %227, i64 4
  store i8 %226, ptr %228, align 1, !tbaa !50
  %229 = load i32, ptr %13, align 4, !tbaa !38
  %230 = load ptr, ptr %8, align 8, !tbaa !45
  %231 = getelementptr inbounds i8, ptr %230, i64 5
  %232 = load i8, ptr %231, align 1, !tbaa !50
  %233 = zext i8 %232 to i32
  %234 = mul nsw i32 %229, %233
  %235 = load i32, ptr %14, align 4, !tbaa !38
  %236 = load ptr, ptr %8, align 8, !tbaa !45
  %237 = getelementptr inbounds i8, ptr %236, i64 6
  %238 = load i8, ptr %237, align 1, !tbaa !50
  %239 = zext i8 %238 to i32
  %240 = mul nsw i32 %235, %239
  %241 = add nsw i32 %234, %240
  %242 = load i32, ptr %15, align 4, !tbaa !38
  %243 = load ptr, ptr %8, align 8, !tbaa !45
  %244 = load i64, ptr %9, align 8, !tbaa !47
  %245 = add nsw i64 %244, 5
  %246 = getelementptr inbounds i8, ptr %243, i64 %245
  %247 = load i8, ptr %246, align 1, !tbaa !50
  %248 = zext i8 %247 to i32
  %249 = mul nsw i32 %242, %248
  %250 = add nsw i32 %241, %249
  %251 = load i32, ptr %16, align 4, !tbaa !38
  %252 = load ptr, ptr %8, align 8, !tbaa !45
  %253 = load i64, ptr %9, align 8, !tbaa !47
  %254 = add nsw i64 %253, 5
  %255 = add nsw i64 %254, 1
  %256 = getelementptr inbounds i8, ptr %252, i64 %255
  %257 = load i8, ptr %256, align 1, !tbaa !50
  %258 = zext i8 %257 to i32
  %259 = mul nsw i32 %251, %258
  %260 = add nsw i32 %250, %259
  %261 = add nsw i32 %260, 32
  %262 = sub nsw i32 %261, 4
  %263 = ashr i32 %262, 6
  %264 = trunc i32 %263 to i8
  %265 = load ptr, ptr %7, align 8, !tbaa !45
  %266 = getelementptr inbounds i8, ptr %265, i64 5
  store i8 %264, ptr %266, align 1, !tbaa !50
  %267 = load i32, ptr %13, align 4, !tbaa !38
  %268 = load ptr, ptr %8, align 8, !tbaa !45
  %269 = getelementptr inbounds i8, ptr %268, i64 6
  %270 = load i8, ptr %269, align 1, !tbaa !50
  %271 = zext i8 %270 to i32
  %272 = mul nsw i32 %267, %271
  %273 = load i32, ptr %14, align 4, !tbaa !38
  %274 = load ptr, ptr %8, align 8, !tbaa !45
  %275 = getelementptr inbounds i8, ptr %274, i64 7
  %276 = load i8, ptr %275, align 1, !tbaa !50
  %277 = zext i8 %276 to i32
  %278 = mul nsw i32 %273, %277
  %279 = add nsw i32 %272, %278
  %280 = load i32, ptr %15, align 4, !tbaa !38
  %281 = load ptr, ptr %8, align 8, !tbaa !45
  %282 = load i64, ptr %9, align 8, !tbaa !47
  %283 = add nsw i64 %282, 6
  %284 = getelementptr inbounds i8, ptr %281, i64 %283
  %285 = load i8, ptr %284, align 1, !tbaa !50
  %286 = zext i8 %285 to i32
  %287 = mul nsw i32 %280, %286
  %288 = add nsw i32 %279, %287
  %289 = load i32, ptr %16, align 4, !tbaa !38
  %290 = load ptr, ptr %8, align 8, !tbaa !45
  %291 = load i64, ptr %9, align 8, !tbaa !47
  %292 = add nsw i64 %291, 6
  %293 = add nsw i64 %292, 1
  %294 = getelementptr inbounds i8, ptr %290, i64 %293
  %295 = load i8, ptr %294, align 1, !tbaa !50
  %296 = zext i8 %295 to i32
  %297 = mul nsw i32 %289, %296
  %298 = add nsw i32 %288, %297
  %299 = add nsw i32 %298, 32
  %300 = sub nsw i32 %299, 4
  %301 = ashr i32 %300, 6
  %302 = trunc i32 %301 to i8
  %303 = load ptr, ptr %7, align 8, !tbaa !45
  %304 = getelementptr inbounds i8, ptr %303, i64 6
  store i8 %302, ptr %304, align 1, !tbaa !50
  %305 = load i32, ptr %13, align 4, !tbaa !38
  %306 = load ptr, ptr %8, align 8, !tbaa !45
  %307 = getelementptr inbounds i8, ptr %306, i64 7
  %308 = load i8, ptr %307, align 1, !tbaa !50
  %309 = zext i8 %308 to i32
  %310 = mul nsw i32 %305, %309
  %311 = load i32, ptr %14, align 4, !tbaa !38
  %312 = load ptr, ptr %8, align 8, !tbaa !45
  %313 = getelementptr inbounds i8, ptr %312, i64 8
  %314 = load i8, ptr %313, align 1, !tbaa !50
  %315 = zext i8 %314 to i32
  %316 = mul nsw i32 %311, %315
  %317 = add nsw i32 %310, %316
  %318 = load i32, ptr %15, align 4, !tbaa !38
  %319 = load ptr, ptr %8, align 8, !tbaa !45
  %320 = load i64, ptr %9, align 8, !tbaa !47
  %321 = add nsw i64 %320, 7
  %322 = getelementptr inbounds i8, ptr %319, i64 %321
  %323 = load i8, ptr %322, align 1, !tbaa !50
  %324 = zext i8 %323 to i32
  %325 = mul nsw i32 %318, %324
  %326 = add nsw i32 %317, %325
  %327 = load i32, ptr %16, align 4, !tbaa !38
  %328 = load ptr, ptr %8, align 8, !tbaa !45
  %329 = load i64, ptr %9, align 8, !tbaa !47
  %330 = add nsw i64 %329, 7
  %331 = add nsw i64 %330, 1
  %332 = getelementptr inbounds i8, ptr %328, i64 %331
  %333 = load i8, ptr %332, align 1, !tbaa !50
  %334 = zext i8 %333 to i32
  %335 = mul nsw i32 %327, %334
  %336 = add nsw i32 %326, %335
  %337 = add nsw i32 %336, 32
  %338 = sub nsw i32 %337, 4
  %339 = ashr i32 %338, 6
  %340 = trunc i32 %339 to i8
  %341 = load ptr, ptr %7, align 8, !tbaa !45
  %342 = getelementptr inbounds i8, ptr %341, i64 7
  store i8 %340, ptr %342, align 1, !tbaa !50
  %343 = load i64, ptr %9, align 8, !tbaa !47
  %344 = load ptr, ptr %7, align 8, !tbaa !45
  %345 = getelementptr inbounds i8, ptr %344, i64 %343
  store ptr %345, ptr %7, align 8, !tbaa !45
  %346 = load i64, ptr %9, align 8, !tbaa !47
  %347 = load ptr, ptr %8, align 8, !tbaa !45
  %348 = getelementptr inbounds i8, ptr %347, i64 %346
  store ptr %348, ptr %8, align 8, !tbaa !45
  br label %349

349:                                              ; preds = %38
  %350 = load i32, ptr %17, align 4, !tbaa !38
  %351 = add nsw i32 %350, 1
  store i32 %351, ptr %17, align 4, !tbaa !38
  br label %34, !llvm.loop !68

352:                                              ; preds = %34
  call void @llvm.lifetime.end.p0(i64 4, ptr %17) #7
  call void @llvm.lifetime.end.p0(i64 4, ptr %16) #7
  call void @llvm.lifetime.end.p0(i64 4, ptr %15) #7
  call void @llvm.lifetime.end.p0(i64 4, ptr %14) #7
  call void @llvm.lifetime.end.p0(i64 4, ptr %13) #7
  ret void
}