; Function Attrs: nofree norecurse nosync nounwind memory(argmem: readwrite) uwtable
define internal void @put_no_rnd_vc1_chroma_mc8_c(ptr noundef writeonly captures(none) %0, ptr noundef readonly captures(none) %1, i64 noundef %2, i32 noundef %3, i32 noundef %4, i32 noundef %5) #1 {
  %7 = sub nsw i32 8, %4
  %8 = sub nsw i32 8, %5
  %9 = mul nsw i32 %8, %7
  %10 = mul nsw i32 %8, %4
  %11 = mul nsw i32 %7, %5
  %12 = mul nsw i32 %5, %4
  %13 = icmp sgt i32 %3, 0
  br i1 %13, label %.lr.ph, label %._crit_edge

.lr.ph:                                           ; preds = %6, %.lr.ph
  %.0106 = phi i32 [ %183, %.lr.ph ], [ 0, %6 ]
  %.0102105 = phi ptr [ %182, %.lr.ph ], [ %0, %6 ]
  %.0103104 = phi ptr [ %21, %.lr.ph ], [ %1, %6 ]
  %14 = load i8, ptr %.0103104, align 1, !tbaa !40
  %15 = zext i8 %14 to i32
  %16 = mul nsw i32 %9, %15
  %17 = getelementptr inbounds nuw i8, ptr %.0103104, i64 1
  %18 = load i8, ptr %17, align 1, !tbaa !40
  %19 = zext i8 %18 to i32
  %20 = mul nsw i32 %10, %19
  %21 = getelementptr inbounds i8, ptr %.0103104, i64 %2
  %22 = load i8, ptr %21, align 1, !tbaa !40
  %23 = zext i8 %22 to i32
  %24 = mul nsw i32 %11, %23
  %25 = getelementptr i8, ptr %21, i64 1
  %26 = load i8, ptr %25, align 1, !tbaa !40
  %27 = zext i8 %26 to i32
  %28 = mul nsw i32 %12, %27
  %29 = add i32 %16, 28
  %30 = add i32 %29, %20
  %31 = add i32 %30, %24
  %32 = add i32 %31, %28
  %33 = lshr i32 %32, 6
  %34 = trunc i32 %33 to i8
  store i8 %34, ptr %.0102105, align 1, !tbaa !40
  %35 = load i8, ptr %17, align 1, !tbaa !40
  %36 = zext i8 %35 to i32
  %37 = mul nsw i32 %9, %36
  %38 = getelementptr inbounds nuw i8, ptr %.0103104, i64 2
  %39 = load i8, ptr %38, align 1, !tbaa !40
  %40 = zext i8 %39 to i32
  %41 = mul nsw i32 %10, %40
  %42 = load i8, ptr %25, align 1, !tbaa !40
  %43 = zext i8 %42 to i32
  %44 = mul nsw i32 %11, %43
  %45 = getelementptr i8, ptr %21, i64 2
  %46 = load i8, ptr %45, align 1, !tbaa !40
  %47 = zext i8 %46 to i32
  %48 = mul nsw i32 %12, %47
  %49 = add i32 %37, 28
  %50 = add i32 %49, %41
  %51 = add i32 %50, %44
  %52 = add i32 %51, %48
  %53 = lshr i32 %52, 6
  %54 = trunc i32 %53 to i8
  %55 = getelementptr inbounds nuw i8, ptr %.0102105, i64 1
  store i8 %54, ptr %55, align 1, !tbaa !40
  %56 = load i8, ptr %38, align 1, !tbaa !40
  %57 = zext i8 %56 to i32
  %58 = mul nsw i32 %9, %57
  %59 = getelementptr inbounds nuw i8, ptr %.0103104, i64 3
  %60 = load i8, ptr %59, align 1, !tbaa !40
  %61 = zext i8 %60 to i32
  %62 = mul nsw i32 %10, %61
  %63 = load i8, ptr %45, align 1, !tbaa !40
  %64 = zext i8 %63 to i32
  %65 = mul nsw i32 %11, %64
  %66 = getelementptr i8, ptr %21, i64 3
  %67 = load i8, ptr %66, align 1, !tbaa !40
  %68 = zext i8 %67 to i32
  %69 = mul nsw i32 %12, %68
  %70 = add i32 %58, 28
  %71 = add i32 %70, %62
  %72 = add i32 %71, %65
  %73 = add i32 %72, %69
  %74 = lshr i32 %73, 6
  %75 = trunc i32 %74 to i8
  %76 = getelementptr inbounds nuw i8, ptr %.0102105, i64 2
  store i8 %75, ptr %76, align 1, !tbaa !40
  %77 = load i8, ptr %59, align 1, !tbaa !40
  %78 = zext i8 %77 to i32
  %79 = mul nsw i32 %9, %78
  %80 = getelementptr inbounds nuw i8, ptr %.0103104, i64 4
  %81 = load i8, ptr %80, align 1, !tbaa !40
  %82 = zext i8 %81 to i32
  %83 = mul nsw i32 %10, %82
  %84 = load i8, ptr %66, align 1, !tbaa !40
  %85 = zext i8 %84 to i32
  %86 = mul nsw i32 %11, %85
  %87 = getelementptr i8, ptr %21, i64 4
  %88 = load i8, ptr %87, align 1, !tbaa !40
  %89 = zext i8 %88 to i32
  %90 = mul nsw i32 %12, %89
  %91 = add i32 %79, 28
  %92 = add i32 %91, %83
  %93 = add i32 %92, %86
  %94 = add i32 %93, %90
  %95 = lshr i32 %94, 6
  %96 = trunc i32 %95 to i8
  %97 = getelementptr inbounds nuw i8, ptr %.0102105, i64 3
  store i8 %96, ptr %97, align 1, !tbaa !40
  %98 = load i8, ptr %80, align 1, !tbaa !40
  %99 = zext i8 %98 to i32
  %100 = mul nsw i32 %9, %99
  %101 = getelementptr inbounds nuw i8, ptr %.0103104, i64 5
  %102 = load i8, ptr %101, align 1, !tbaa !40
  %103 = zext i8 %102 to i32
  %104 = mul nsw i32 %10, %103
  %105 = load i8, ptr %87, align 1, !tbaa !40
  %106 = zext i8 %105 to i32
  %107 = mul nsw i32 %11, %106
  %108 = getelementptr i8, ptr %21, i64 5
  %109 = load i8, ptr %108, align 1, !tbaa !40
  %110 = zext i8 %109 to i32
  %111 = mul nsw i32 %12, %110
  %112 = add i32 %100, 28
  %113 = add i32 %112, %104
  %114 = add i32 %113, %107
  %115 = add i32 %114, %111
  %116 = lshr i32 %115, 6
  %117 = trunc i32 %116 to i8
  %118 = getelementptr inbounds nuw i8, ptr %.0102105, i64 4
  store i8 %117, ptr %118, align 1, !tbaa !40
  %119 = load i8, ptr %101, align 1, !tbaa !40
  %120 = zext i8 %119 to i32
  %121 = mul nsw i32 %9, %120
  %122 = getelementptr inbounds nuw i8, ptr %.0103104, i64 6
  %123 = load i8, ptr %122, align 1, !tbaa !40
  %124 = zext i8 %123 to i32
  %125 = mul nsw i32 %10, %124
  %126 = load i8, ptr %108, align 1, !tbaa !40
  %127 = zext i8 %126 to i32
  %128 = mul nsw i32 %11, %127
  %129 = getelementptr i8, ptr %21, i64 6
  %130 = load i8, ptr %129, align 1, !tbaa !40
  %131 = zext i8 %130 to i32
  %132 = mul nsw i32 %12, %131
  %133 = add i32 %121, 28
  %134 = add i32 %133, %125
  %135 = add i32 %134, %128
  %136 = add i32 %135, %132
  %137 = lshr i32 %136, 6
  %138 = trunc i32 %137 to i8
  %139 = getelementptr inbounds nuw i8, ptr %.0102105, i64 5
  store i8 %138, ptr %139, align 1, !tbaa !40
  %140 = load i8, ptr %122, align 1, !tbaa !40
  %141 = zext i8 %140 to i32
  %142 = mul nsw i32 %9, %141
  %143 = getelementptr inbounds nuw i8, ptr %.0103104, i64 7
  %144 = load i8, ptr %143, align 1, !tbaa !40
  %145 = zext i8 %144 to i32
  %146 = mul nsw i32 %10, %145
  %147 = load i8, ptr %129, align 1, !tbaa !40
  %148 = zext i8 %147 to i32
  %149 = mul nsw i32 %11, %148
  %150 = getelementptr i8, ptr %21, i64 7
  %151 = load i8, ptr %150, align 1, !tbaa !40
  %152 = zext i8 %151 to i32
  %153 = mul nsw i32 %12, %152
  %154 = add i32 %142, 28
  %155 = add i32 %154, %146
  %156 = add i32 %155, %149
  %157 = add i32 %156, %153
  %158 = lshr i32 %157, 6
  %159 = trunc i32 %158 to i8
  %160 = getelementptr inbounds nuw i8, ptr %.0102105, i64 6
  store i8 %159, ptr %160, align 1, !tbaa !40
  %161 = load i8, ptr %143, align 1, !tbaa !40
  %162 = zext i8 %161 to i32
  %163 = mul nsw i32 %9, %162
  %164 = getelementptr inbounds nuw i8, ptr %.0103104, i64 8
  %165 = load i8, ptr %164, align 1, !tbaa !40
  %166 = zext i8 %165 to i32
  %167 = mul nsw i32 %10, %166
  %168 = load i8, ptr %150, align 1, !tbaa !40
  %169 = zext i8 %168 to i32
  %170 = mul nsw i32 %11, %169
  %171 = getelementptr i8, ptr %21, i64 8
  %172 = load i8, ptr %171, align 1, !tbaa !40
  %173 = zext i8 %172 to i32
  %174 = mul nsw i32 %12, %173
  %175 = add i32 %163, 28
  %176 = add i32 %175, %167
  %177 = add i32 %176, %170
  %178 = add i32 %177, %174
  %179 = lshr i32 %178, 6
  %180 = trunc i32 %179 to i8
  %181 = getelementptr inbounds nuw i8, ptr %.0102105, i64 7
  store i8 %180, ptr %181, align 1, !tbaa !40
  %182 = getelementptr inbounds i8, ptr %.0102105, i64 %2
  %183 = add nuw nsw i32 %.0106, 1
  %exitcond.not = icmp eq i32 %183, %3
  br i1 %exitcond.not, label %._crit_edge, label %.lr.ph, !llvm.loop !92

._crit_edge:                                      ; preds = %.lr.ph, %6
  ret void
}